; Function Attrs: nounwind uwtable
define ptr @l_Lean_Meta_FVarSubst_domain(ptr noundef %0) local_unnamed_addr #0 {
  br label %2

2:                                                ; preds = %lean_alloc_ctor.exit.i, %1
  %.011.i = phi ptr [ %0, %1 ], [ %16, %lean_alloc_ctor.exit.i ]
  %.0.i = phi ptr [ inttoptr (i64 1 to ptr), %1 ], [ %25, %lean_alloc_ctor.exit.i ]
  %3 = ptrtoint ptr %.011.i to i64
  %4 = and i64 %3, 1
  %.not.i.i = icmp eq i64 %4, 0
  br i1 %.not.i.i, label %8, label %5

5:                                                ; preds = %2
  %6 = lshr i64 %3, 1
  %7 = trunc i64 %6 to i32
  br label %lean_obj_tag.exit.i

8:                                                ; preds = %2
  %9 = getelementptr i8, ptr %.011.i, i64 4
  %.val.i.i = load i32, ptr %9, align 4
  %10 = lshr i32 %.val.i.i, 24
  br label %lean_obj_tag.exit.i

lean_obj_tag.exit.i:                              ; preds = %8, %5
  %.0.i.i = phi i32 [ %7, %5 ], [ %10, %8 ]
  %11 = icmp eq i32 %.0.i.i, 0
  br i1 %11, label %l_Lean_AssocList_foldlM___at_Lean_Meta_FVarSubst_domain___spec__1.exit, label %12

12:                                               ; preds = %lean_obj_tag.exit.i
  %13 = getelementptr inbounds nuw i8, ptr %.011.i, i64 8
  %14 = load ptr, ptr %13, align 8, !tbaa !10
  %15 = getelementptr inbounds nuw i8, ptr %.011.i, i64 24
  %16 = load ptr, ptr %15, align 8, !tbaa !10
  %17 = ptrtoint ptr %14 to i64
  %18 = and i64 %17, 1
  %.not.i = icmp eq i64 %18, 0
  br i1 %.not.i, label %19, label %lean_inc.exit.i

19:                                               ; preds = %12
  %.val.i12.i = load i32, ptr %14, align 4, !tbaa !4
  %20 = icmp sgt i32 %.val.i12.i, 0
  br i1 %20, label %21, label %23, !prof !9

21:                                               ; preds = %19
  %22 = add nuw i32 %.val.i12.i, 1
  store i32 %22, ptr %14, align 4, !tbaa !4
  br label %lean_inc.exit.i

23:                                               ; preds = %19
  %.not.i13.i = icmp eq i32 %.val.i12.i, 0
  br i1 %.not.i13.i, label %lean_inc.exit.i, label %24

24:                                               ; preds = %23
  tail call void @lean_inc_ref_cold(ptr noundef nonnull %14) #3
  br label %lean_inc.exit.i

lean_inc.exit.i:                                  ; preds = %24, %23, %21, %12
  tail call void @lean_inc_heartbeat() #3
  %25 = tail call noalias ptr @mi_malloc_small(i64 noundef 24) #3
  %26 = icmp eq ptr %25, null
  br i1 %26, label %27, label %lean_alloc_ctor.exit.i

27:                                               ; preds = %lean_inc.exit.i
  tail call void @lean_internal_panic_out_of_memory() #4
  unreachable

lean_alloc_ctor.exit.i:                           ; preds = %lean_inc.exit.i
  %28 = getelementptr inbounds nuw i8, ptr %25, i64 4
  store i32 1, ptr %25, align 4, !tbaa !4
  store i32 16908312, ptr %28, align 4
  %29 = getelementptr inbounds nuw i8, ptr %25, i64 8
  store ptr %14, ptr %29, align 8, !tbaa !10
  %30 = getelementptr inbounds nuw i8, ptr %25, i64 16
  store ptr %.0.i, ptr %30, align 8, !tbaa !10
  br label %2

l_Lean_AssocList_foldlM___at_Lean_Meta_FVarSubst_domain___spec__1.exit: ; preds = %lean_obj_tag.exit.i
  ret ptr %.0.i
}